; Function Attrs: mustprogress nounwind uwtable
define void @_ZN5arrow2io20TransformInputStreamD1Ev(ptr noundef nonnull align 8 dereferenceable(16) %this) unnamed_addr #4 align 2 personality ptr @__gxx_personality_v0 {
entry:
  %add.ptr.i = getelementptr inbounds i8, ptr %this, i64 16
  store ptr getelementptr inbounds ({ [21 x ptr], [15 x ptr] }, ptr @_ZTVN5arrow2io20TransformInputStreamE, i64 0, i32 1, i64 8), ptr %add.ptr.i, align 8
  store ptr getelementptr inbounds ({ [21 x ptr], [15 x ptr] }, ptr @_ZTVN5arrow2io20TransformInputStreamE, i64 0, i32 0, i64 8), ptr %this, align 8
  %impl_.i = getelementptr inbounds i8, ptr %this, i64 8
  %0 = load ptr, ptr %impl_.i, align 8
  %cmp.not.i.i = icmp eq ptr %0, null
  br i1 %cmp.not.i.i, label %_ZN5arrow2io20TransformInputStreamD2Ev.exit, label %_ZNKSt14default_deleteIN5arrow2io20TransformInputStream4ImplEEclEPS3_.exit.i.i

_ZNKSt14default_deleteIN5arrow2io20TransformInputStream4ImplEEclEPS3_.exit.i.i: ; preds = %entry
  tail call void @_ZN5arrow2io20TransformInputStream4ImplD2Ev(ptr noundef nonnull align 8 dereferenceable(73) %0) #19
  tail call void @_ZdlPv(ptr noundef nonnull %0) #20
  br label %_ZN5arrow2io20TransformInputStreamD2Ev.exit

_ZN5arrow2io20TransformInputStreamD2Ev.exit:      ; preds = %entry, %_ZNKSt14default_deleteIN5arrow2io20TransformInputStream4ImplEEclEPS3_.exit.i.i
  store ptr null, ptr %impl_.i, align 8
  tail call void @_ZN5arrow2io13FileInterfaceD2Ev(ptr noundef nonnull align 8 dereferenceable(28) %add.ptr.i) #19
  ret void
}